target datalayout = "e-m:e-p270:32:32-p271:32:32-p272:64:64-i64:64-i128:128-f80:128-n8:16:32:64-S128"
target triple = "x86_64-pc-linux-gnu"

%class.anon = type { i8 }

@common_log_verbosity_thold = external global i32, align 4
@.str.9 = private unnamed_addr constant [1 x i8] zeroinitializer, align 1
@.str.10 = private unnamed_addr constant [33 x i8] c"build: %d (%s) with %s for %s%s\0A\00", align 1
@LLAMA_BUILD_NUMBER = external global i32, align 4
@LLAMA_COMMIT = external global ptr, align 8
@LLAMA_COMPILER = external global ptr, align 8
@LLAMA_BUILD_TARGET = external global ptr, align 8

; Function Attrs: inlinehint mustprogress nounwind uwtable
define internal noundef ptr @"_ZZ11common_initvENK3$_0cvPFv14ggml_log_levelPKcPvEEv"(ptr noundef nonnull align 1 dereferenceable(1) %0) #8 align 2 {
  %2 = alloca ptr, align 8
  store ptr %0, ptr %2, align 8, !tbaa !51
  ret ptr @"_ZZ11common_initvEN3$_08__invokeE14ggml_log_levelPKcPv"
}

; Function Attrs: mustprogress uwtable
define void @_Z11common_initv() #4 {
  %1 = alloca %class.anon, align 1
  %2 = alloca ptr, align 8
  call void @llvm.lifetime.start.p0(i64 1, ptr %1) #3
  %3 = call noundef ptr @"_ZZ11common_initvENK3$_0cvPFv14ggml_log_levelPKcPvEEv"(ptr noundef nonnull align 1 dereferenceable(1) %1) #3
  call void @llama_log_set(ptr noundef %3, ptr noundef null)
  call void @llvm.lifetime.end.p0(i64 1, ptr %1) #3
  call void @llvm.lifetime.start.p0(i64 8, ptr %2) #3
  store ptr @.str.9, ptr %2, align 8, !tbaa !16
  br label %4

4:                                                ; preds = %0
  %5 = load i32, ptr @common_log_verbosity_thold, align 4, !tbaa !3
  %6 = icmp sle i32 0, %5
  br i1 %6, label %7, label %14

7:                                                ; preds = %4
  %8 = call noundef ptr @_Z15common_log_mainv()
  %9 = load i32, ptr @LLAMA_BUILD_NUMBER, align 4, !tbaa !3
  %10 = load ptr, ptr @LLAMA_COMMIT, align 8, !tbaa !16
  %11 = load ptr, ptr @LLAMA_COMPILER, align 8, !tbaa !16
  %12 = load ptr, ptr @LLAMA_BUILD_TARGET, align 8, !tbaa !16
  %13 = load ptr, ptr %2, align 8, !tbaa !16
  call void (ptr, i32, ptr, ...) @_Z14common_log_addP10common_log14ggml_log_levelPKcz(ptr noundef %8, i32 noundef 2, ptr noundef @.str.10, i32 noundef %9, ptr noundef %10, ptr noundef %11, ptr noundef %12, ptr noundef %13)
  br label %14

14:                                               ; preds = %7, %4
  br label %15

15:                                               ; preds = %14
  br label %16

16:                                               ; preds = %15
  call void @llvm.lifetime.end.p0(i64 8, ptr %2) #3
  ret void
}