; Function Attrs: mustprogress uwtable
define void @_Z11common_initv() local_unnamed_addr #3 {
  tail call void @llama_log_set(ptr noundef nonnull @"_ZZ11common_initvEN3$_08__invokeE14ggml_log_levelPKcPv", ptr noundef null)
  %1 = load i32, ptr @common_log_verbosity_thold, align 4, !tbaa !72
  %2 = icmp sgt i32 %1, -1
  br i1 %2, label %3, label %9

3:                                                ; preds = %0
  %4 = tail call noundef ptr @_Z15common_log_mainv()
  %5 = load i32, ptr @LLAMA_BUILD_NUMBER, align 4, !tbaa !72
  %6 = load ptr, ptr @LLAMA_COMMIT, align 8, !tbaa !85
  %7 = load ptr, ptr @LLAMA_COMPILER, align 8, !tbaa !85
  %8 = load ptr, ptr @LLAMA_BUILD_TARGET, align 8, !tbaa !85
  tail call void (ptr, i32, ptr, ...) @_Z14common_log_addP10common_log14ggml_log_levelPKcz(ptr noundef %4, i32 noundef 2, ptr noundef nonnull @.str.10, i32 noundef %5, ptr noundef %6, ptr noundef %7, ptr noundef %8, ptr noundef nonnull @.str.9)
  br label %9

9:                                                ; preds = %3, %0
  ret void
}